; ModuleID = 'source-C-CXX/23/424.c'
source_filename = "source-C-CXX/23/424.c"
target datalayout = "e-m:e-p270:32:32-p271:32:32-p272:64:64-i64:64-f80:128-n8:16:32:64-S128"
target triple = "x86_64-pc-linux-gnu"

@.str = private unnamed_addr constant [3 x i8] c"%s\00", align 1
@.str.1 = private unnamed_addr constant [7 x i8] c"%s\0A%s\0A\00", align 1

; Function Attrs: nofree nounwind sspstrong uwtable
define dso_local void @main() local_unnamed_addr #0 {
  %1 = alloca [50 x [100 x i8]], align 16
  %2 = alloca [100 x i8], align 16
  %3 = alloca [100 x i8], align 16
  %4 = getelementptr inbounds [50 x [100 x i8]], [50 x [100 x i8]]* %1, i64 0, i64 0, i64 0
  call void @llvm.lifetime.start.p0i8(i64 5000, i8* nonnull %4) #5
  %5 = getelementptr inbounds [100 x i8], [100 x i8]* %2, i64 0, i64 0
  call void @llvm.lifetime.start.p0i8(i64 100, i8* nonnull %5) #5
  %6 = getelementptr inbounds [100 x i8], [100 x i8]* %3, i64 0, i64 0
  call void @llvm.lifetime.start.p0i8(i64 100, i8* nonnull %6) #5
  %7 = call i32 (i8*, ...) @__isoc99_scanf(i8* getelementptr inbounds ([3 x i8], [3 x i8]* @.str, i64 0, i64 0), i8* nonnull %4)
  %8 = getelementptr inbounds [50 x [100 x i8]], [50 x [100 x i8]]* %1, i64 0, i64 1, i64 0
  %9 = call i32 (i8*, ...) @__isoc99_scanf(i8* getelementptr inbounds ([3 x i8], [3 x i8]* @.str, i64 0, i64 0), i8* nonnull %8)
  %10 = getelementptr inbounds [50 x [100 x i8]], [50 x [100 x i8]]* %1, i64 0, i64 2, i64 0
  %11 = call i32 (i8*, ...) @__isoc99_scanf(i8* getelementptr inbounds ([3 x i8], [3 x i8]* @.str, i64 0, i64 0), i8* nonnull %10)
  %12 = getelementptr inbounds [50 x [100 x i8]], [50 x [100 x i8]]* %1, i64 0, i64 3, i64 0
  %13 = call i32 (i8*, ...) @__isoc99_scanf(i8* getelementptr inbounds ([3 x i8], [3 x i8]* @.str, i64 0, i64 0), i8* nonnull %12)
  %14 = getelementptr inbounds [50 x [100 x i8]], [50 x [100 x i8]]* %1, i64 0, i64 4, i64 0
  %15 = call i32 (i8*, ...) @__isoc99_scanf(i8* getelementptr inbounds ([3 x i8], [3 x i8]* @.str, i64 0, i64 0), i8* nonnull %14)
  %16 = getelementptr inbounds [50 x [100 x i8]], [50 x [100 x i8]]* %1, i64 0, i64 5, i64 0
  %17 = call i32 (i8*, ...) @__isoc99_scanf(i8* getelementptr inbounds ([3 x i8], [3 x i8]* @.str, i64 0, i64 0), i8* nonnull %16)
  %18 = getelementptr inbounds [50 x [100 x i8]], [50 x [100 x i8]]* %1, i64 0, i64 6, i64 0
  %19 = call i32 (i8*, ...) @__isoc99_scanf(i8* getelementptr inbounds ([3 x i8], [3 x i8]* @.str, i64 0, i64 0), i8* nonnull %18)
  %20 = getelementptr inbounds [50 x [100 x i8]], [50 x [100 x i8]]* %1, i64 0, i64 7, i64 0
  %21 = call i32 (i8*, ...) @__isoc99_scanf(i8* getelementptr inbounds ([3 x i8], [3 x i8]* @.str, i64 0, i64 0), i8* nonnull %20)
  %22 = getelementptr inbounds [50 x [100 x i8]], [50 x [100 x i8]]* %1, i64 0, i64 8, i64 0
  %23 = call i32 (i8*, ...) @__isoc99_scanf(i8* getelementptr inbounds ([3 x i8], [3 x i8]* @.str, i64 0, i64 0), i8* nonnull %22)
  %24 = getelementptr inbounds [50 x [100 x i8]], [50 x [100 x i8]]* %1, i64 0, i64 9, i64 0
  %25 = call i32 (i8*, ...) @__isoc99_scanf(i8* getelementptr inbounds ([3 x i8], [3 x i8]* @.str, i64 0, i64 0), i8* nonnull %24)
  %26 = getelementptr inbounds [50 x [100 x i8]], [50 x [100 x i8]]* %1, i64 0, i64 10, i64 0
  %27 = call i32 (i8*, ...) @__isoc99_scanf(i8* getelementptr inbounds ([3 x i8], [3 x i8]* @.str, i64 0, i64 0), i8* nonnull %26)
  %28 = getelementptr inbounds [50 x [100 x i8]], [50 x [100 x i8]]* %1, i64 0, i64 11, i64 0
  %29 = call i32 (i8*, ...) @__isoc99_scanf(i8* getelementptr inbounds ([3 x i8], [3 x i8]* @.str, i64 0, i64 0), i8* nonnull %28)
  %30 = getelementptr inbounds [50 x [100 x i8]], [50 x [100 x i8]]* %1, i64 0, i64 12, i64 0
  %31 = call i32 (i8*, ...) @__isoc99_scanf(i8* getelementptr inbounds ([3 x i8], [3 x i8]* @.str, i64 0, i64 0), i8* nonnull %30)
  %32 = getelementptr inbounds [50 x [100 x i8]], [50 x [100 x i8]]* %1, i64 0, i64 13, i64 0
  %33 = call i32 (i8*, ...) @__isoc99_scanf(i8* getelementptr inbounds ([3 x i8], [3 x i8]* @.str, i64 0, i64 0), i8* nonnull %32)
  %34 = getelementptr inbounds [50 x [100 x i8]], [50 x [100 x i8]]* %1, i64 0, i64 14, i64 0
  %35 = call i32 (i8*, ...) @__isoc99_scanf(i8* getelementptr inbounds ([3 x i8], [3 x i8]* @.str, i64 0, i64 0), i8* nonnull %34)
  %36 = getelementptr inbounds [50 x [100 x i8]], [50 x [100 x i8]]* %1, i64 0, i64 15, i64 0
  %37 = call i32 (i8*, ...) @__isoc99_scanf(i8* getelementptr inbounds ([3 x i8], [3 x i8]* @.str, i64 0, i64 0), i8* nonnull %36)
  %38 = getelementptr inbounds [50 x [100 x i8]], [50 x [100 x i8]]* %1, i64 0, i64 16, i64 0
  %39 = call i32 (i8*, ...) @__isoc99_scanf(i8* getelementptr inbounds ([3 x i8], [3 x i8]* @.str, i64 0, i64 0), i8* nonnull %38)
  %40 = getelementptr inbounds [50 x [100 x i8]], [50 x [100 x i8]]* %1, i64 0, i64 17, i64 0
  %41 = call i32 (i8*, ...) @__isoc99_scanf(i8* getelementptr inbounds ([3 x i8], [3 x i8]* @.str, i64 0, i64 0), i8* nonnull %40)
  %42 = getelementptr inbounds [50 x [100 x i8]], [50 x [100 x i8]]* %1, i64 0, i64 18, i64 0
  %43 = call i32 (i8*, ...) @__isoc99_scanf(i8* getelementptr inbounds ([3 x i8], [3 x i8]* @.str, i64 0, i64 0), i8* nonnull %42)
  %44 = getelementptr inbounds [50 x [100 x i8]], [50 x [100 x i8]]* %1, i64 0, i64 19, i64 0
  %45 = call i32 (i8*, ...) @__isoc99_scanf(i8* getelementptr inbounds ([3 x i8], [3 x i8]* @.str, i64 0, i64 0), i8* nonnull %44)
  %46 = getelementptr inbounds [50 x [100 x i8]], [50 x [100 x i8]]* %1, i64 0, i64 20, i64 0
  %47 = call i32 (i8*, ...) @__isoc99_scanf(i8* getelementptr inbounds ([3 x i8], [3 x i8]* @.str, i64 0, i64 0), i8* nonnull %46)
  %48 = getelementptr inbounds [50 x [100 x i8]], [50 x [100 x i8]]* %1, i64 0, i64 21, i64 0
  %49 = call i32 (i8*, ...) @__isoc99_scanf(i8* getelementptr inbounds ([3 x i8], [3 x i8]* @.str, i64 0, i64 0), i8* nonnull %48)
  %50 = getelementptr inbounds [50 x [100 x i8]], [50 x [100 x i8]]* %1, i64 0, i64 22, i64 0
  %51 = call i32 (i8*, ...) @__isoc99_scanf(i8* getelementptr inbounds ([3 x i8], [3 x i8]* @.str, i64 0, i64 0), i8* nonnull %50)
  %52 = getelementptr inbounds [50 x [100 x i8]], [50 x [100 x i8]]* %1, i64 0, i64 23, i64 0
  %53 = call i32 (i8*, ...) @__isoc99_scanf(i8* getelementptr inbounds ([3 x i8], [3 x i8]* @.str, i64 0, i64 0), i8* nonnull %52)
  %54 = getelementptr inbounds [50 x [100 x i8]], [50 x [100 x i8]]* %1, i64 0, i64 24, i64 0
  %55 = call i32 (i8*, ...) @__isoc99_scanf(i8* getelementptr inbounds ([3 x i8], [3 x i8]* @.str, i64 0, i64 0), i8* nonnull %54)
  %56 = getelementptr inbounds [50 x [100 x i8]], [50 x [100 x i8]]* %1, i64 0, i64 25, i64 0
  %57 = call i32 (i8*, ...) @__isoc99_scanf(i8* getelementptr inbounds ([3 x i8], [3 x i8]* @.str, i64 0, i64 0), i8* nonnull %56)
  %58 = getelementptr inbounds [50 x [100 x i8]], [50 x [100 x i8]]* %1, i64 0, i64 26, i64 0
  %59 = call i32 (i8*, ...) @__isoc99_scanf(i8* getelementptr inbounds ([3 x i8], [3 x i8]* @.str, i64 0, i64 0), i8* nonnull %58)
  %60 = getelementptr inbounds [50 x [100 x i8]], [50 x [100 x i8]]* %1, i64 0, i64 27, i64 0
  %61 = call i32 (i8*, ...) @__isoc99_scanf(i8* getelementptr inbounds ([3 x i8], [3 x i8]* @.str, i64 0, i64 0), i8* nonnull %60)
  %62 = getelementptr inbounds [50 x [100 x i8]], [50 x [100 x i8]]* %1, i64 0, i64 28, i64 0
  %63 = call i32 (i8*, ...) @__isoc99_scanf(i8* getelementptr inbounds ([3 x i8], [3 x i8]* @.str, i64 0, i64 0), i8* nonnull %62)
  %64 = getelementptr inbounds [50 x [100 x i8]], [50 x [100 x i8]]* %1, i64 0, i64 29, i64 0
  %65 = call i32 (i8*, ...) @__isoc99_scanf(i8* getelementptr inbounds ([3 x i8], [3 x i8]* @.str, i64 0, i64 0), i8* nonnull %64)
  %66 = getelementptr inbounds [50 x [100 x i8]], [50 x [100 x i8]]* %1, i64 0, i64 30, i64 0
  %67 = call i32 (i8*, ...) @__isoc99_scanf(i8* getelementptr inbounds ([3 x i8], [3 x i8]* @.str, i64 0, i64 0), i8* nonnull %66)
  %68 = getelementptr inbounds [50 x [100 x i8]], [50 x [100 x i8]]* %1, i64 0, i64 31, i64 0
  %69 = call i32 (i8*, ...) @__isoc99_scanf(i8* getelementptr inbounds ([3 x i8], [3 x i8]* @.str, i64 0, i64 0), i8* nonnull %68)
  %70 = getelementptr inbounds [50 x [100 x i8]], [50 x [100 x i8]]* %1, i64 0, i64 32, i64 0
  %71 = call i32 (i8*, ...) @__isoc99_scanf(i8* getelementptr inbounds ([3 x i8], [3 x i8]* @.str, i64 0, i64 0), i8* nonnull %70)
  %72 = getelementptr inbounds [50 x [100 x i8]], [50 x [100 x i8]]* %1, i64 0, i64 33, i64 0
  %73 = call i32 (i8*, ...) @__isoc99_scanf(i8* getelementptr inbounds ([3 x i8], [3 x i8]* @.str, i64 0, i64 0), i8* nonnull %72)
  %74 = getelementptr inbounds [50 x [100 x i8]], [50 x [100 x i8]]* %1, i64 0, i64 34, i64 0
  %75 = call i32 (i8*, ...) @__isoc99_scanf(i8* getelementptr inbounds ([3 x i8], [3 x i8]* @.str, i64 0, i64 0), i8* nonnull %74)
  %76 = getelementptr inbounds [50 x [100 x i8]], [50 x [100 x i8]]* %1, i64 0, i64 35, i64 0
  %77 = call i32 (i8*, ...) @__isoc99_scanf(i8* getelementptr inbounds ([3 x i8], [3 x i8]* @.str, i64 0, i64 0), i8* nonnull %76)
  %78 = getelementptr inbounds [50 x [100 x i8]], [50 x [100 x i8]]* %1, i64 0, i64 36, i64 0
  %79 = call i32 (i8*, ...) @__isoc99_scanf(i8* getelementptr inbounds ([3 x i8], [3 x i8]* @.str, i64 0, i64 0), i8* nonnull %78)
  %80 = getelementptr inbounds [50 x [100 x i8]], [50 x [100 x i8]]* %1, i64 0, i64 37, i64 0
  %81 = call i32 (i8*, ...) @__isoc99_scanf(i8* getelementptr inbounds ([3 x i8], [3 x i8]* @.str, i64 0, i64 0), i8* nonnull %80)
  %82 = getelementptr inbounds [50 x [100 x i8]], [50 x [100 x i8]]* %1, i64 0, i64 38, i64 0
  %83 = call i32 (i8*, ...) @__isoc99_scanf(i8* getelementptr inbounds ([3 x i8], [3 x i8]* @.str, i64 0, i64 0), i8* nonnull %82)
  %84 = getelementptr inbounds [50 x [100 x i8]], [50 x [100 x i8]]* %1, i64 0, i64 39, i64 0
  %85 = call i32 (i8*, ...) @__isoc99_scanf(i8* getelementptr inbounds ([3 x i8], [3 x i8]* @.str, i64 0, i64 0), i8* nonnull %84)
  %86 = getelementptr inbounds [50 x [100 x i8]], [50 x [100 x i8]]* %1, i64 0, i64 40, i64 0
  %87 = call i32 (i8*, ...) @__isoc99_scanf(i8* getelementptr inbounds ([3 x i8], [3 x i8]* @.str, i64 0, i64 0), i8* nonnull %86)
  %88 = getelementptr inbounds [50 x [100 x i8]], [50 x [100 x i8]]* %1, i64 0, i64 41, i64 0
  %89 = call i32 (i8*, ...) @__isoc99_scanf(i8* getelementptr inbounds ([3 x i8], [3 x i8]* @.str, i64 0, i64 0), i8* nonnull %88)
  %90 = getelementptr inbounds [50 x [100 x i8]], [50 x [100 x i8]]* %1, i64 0, i64 42, i64 0
  %91 = call i32 (i8*, ...) @__isoc99_scanf(i8* getelementptr inbounds ([3 x i8], [3 x i8]* @.str, i64 0, i64 0), i8* nonnull %90)
  %92 = getelementptr inbounds [50 x [100 x i8]], [50 x [100 x i8]]* %1, i64 0, i64 43, i64 0
  %93 = call i32 (i8*, ...) @__isoc99_scanf(i8* getelementptr inbounds ([3 x i8], [3 x i8]* @.str, i64 0, i64 0), i8* nonnull %92)
  %94 = getelementptr inbounds [50 x [100 x i8]], [50 x [100 x i8]]* %1, i64 0, i64 44, i64 0
  %95 = call i32 (i8*, ...) @__isoc99_scanf(i8* getelementptr inbounds ([3 x i8], [3 x i8]* @.str, i64 0, i64 0), i8* nonnull %94)
  %96 = getelementptr inbounds [50 x [100 x i8]], [50 x [100 x i8]]* %1, i64 0, i64 45, i64 0
  %97 = call i32 (i8*, ...) @__isoc99_scanf(i8* getelementptr inbounds ([3 x i8], [3 x i8]* @.str, i64 0, i64 0), i8* nonnull %96)
  %98 = getelementptr inbounds [50 x [100 x i8]], [50 x [100 x i8]]* %1, i64 0, i64 46, i64 0
  %99 = call i32 (i8*, ...) @__isoc99_scanf(i8* getelementptr inbounds ([3 x i8], [3 x i8]* @.str, i64 0, i64 0), i8* nonnull %98)
  %100 = getelementptr inbounds [50 x [100 x i8]], [50 x [100 x i8]]* %1, i64 0, i64 47, i64 0
  %101 = call i32 (i8*, ...) @__isoc99_scanf(i8* getelementptr inbounds ([3 x i8], [3 x i8]* @.str, i64 0, i64 0), i8* nonnull %100)
  %102 = getelementptr inbounds [50 x [100 x i8]], [50 x [100 x i8]]* %1, i64 0, i64 48, i64 0
  %103 = call i32 (i8*, ...) @__isoc99_scanf(i8* getelementptr inbounds ([3 x i8], [3 x i8]* @.str, i64 0, i64 0), i8* nonnull %102)
  %104 = getelementptr inbounds [50 x [100 x i8]], [50 x [100 x i8]]* %1, i64 0, i64 49, i64 0
  %105 = call i32 (i8*, ...) @__isoc99_scanf(i8* getelementptr inbounds ([3 x i8], [3 x i8]* @.str, i64 0, i64 0), i8* nonnull %104)
  %106 = call i8* @strcpy(i8* noundef nonnull %5, i8* noundef nonnull %4) #5
  %107 = call i8* @strcpy(i8* noundef nonnull %6, i8* noundef nonnull %4) #5
  br label %108

108:                                              ; preds = %0, %123
  %109 = phi i64 [ 0, %0 ], [ %124, %123 ]
  %110 = getelementptr inbounds [50 x [100 x i8]], [50 x [100 x i8]]* %1, i64 0, i64 %109, i64 0
  %111 = call i64 @strlen(i8* noundef nonnull %110) #6
  %112 = icmp eq i64 %111, 0
  br i1 %112, label %126, label %113

113:                                              ; preds = %108
  %114 = call i64 @strlen(i8* noundef nonnull %5) #6
  %115 = icmp ult i64 %114, %111
  br i1 %115, label %116, label %118

116:                                              ; preds = %113
  %117 = call i8* @strcpy(i8* noundef nonnull %5, i8* noundef nonnull %110) #5
  br label %118

118:                                              ; preds = %116, %113
  %119 = call i64 @strlen(i8* noundef nonnull %6) #6
  %120 = icmp ugt i64 %119, %111
  br i1 %120, label %121, label %123

121:                                              ; preds = %118
  %122 = call i8* @strcpy(i8* noundef nonnull %6, i8* noundef nonnull %110) #5
  br label %123

123:                                              ; preds = %118, %121
  %124 = add nuw nsw i64 %109, 1
  %125 = icmp eq i64 %124, 50
  br i1 %125, label %126, label %108, !llvm.loop !5

126:                                              ; preds = %108, %123
  %127 = call i32 (i8*, ...) @printf(i8* nonnull dereferenceable(1) getelementptr inbounds ([7 x i8], [7 x i8]* @.str.1, i64 0, i64 0), i8* nonnull %5, i8* nonnull %6)
  call void @llvm.lifetime.end.p0i8(i64 100, i8* nonnull %6) #5
  call void @llvm.lifetime.end.p0i8(i64 100, i8* nonnull %5) #5
  call void @llvm.lifetime.end.p0i8(i64 5000, i8* nonnull %4) #5
  ret void
}

; Function Attrs: argmemonly mustprogress nofree nosync nounwind willreturn
declare void @llvm.lifetime.start.p0i8(i64 immarg, i8* nocapture) #1

; Function Attrs: nofree nounwind
declare noundef i32 @__isoc99_scanf(i8* nocapture noundef readonly, ...) local_unnamed_addr #2

; Function Attrs: argmemonly mustprogress nofree nounwind willreturn
declare i8* @strcpy(i8* noalias returned writeonly, i8* noalias nocapture readonly) local_unnamed_addr #3

; Function Attrs: argmemonly mustprogress nofree nounwind readonly willreturn
declare i64 @strlen(i8* nocapture) local_unnamed_addr #4

; Function Attrs: nofree nounwind
declare noundef i32 @printf(i8* nocapture noundef readonly, ...) local_unnamed_addr #2

; Function Attrs: argmemonly mustprogress nofree nosync nounwind willreturn
declare void @llvm.lifetime.end.p0i8(i64 immarg, i8* nocapture) #1


!llvm.module.flags = !{!0, !1, !2, !3}
!llvm.ident = !{!4}

!0 = !{i32 1, !"wchar_size", i32 4}
!1 = !{i32 7, !"PIC Level", i32 2}
!2 = !{i32 7, !"PIE Level", i32 2}
!3 = !{i32 7, !"uwtable", i32 1}
!4 = !{!"clang version 13.0.0"}
!5 = distinct !{!5, !6}
!6 = !{!"llvm.loop.mustprogress"}
